target datalayout = "e-m:e-p270:32:32-p271:32:32-p272:64:64-i64:64-i128:128-f80:128-n8:16:32:64-S128"
target triple = "x86_64-pc-linux-gnu"

%struct.Gia_ManBmc_t_ = type { ptr, ptr, ptr, ptr, ptr, ptr, ptr, ptr, ptr, ptr, ptr, ptr, ptr, i32, i32, i32, i32, i32, i32, i32, ptr, ptr, ptr, i32, i32, i32, ptr, ptr }
%struct.Saig_ParBmc_t_ = type { i32, i32, i32, i32, i32, i32, i32, i32, i32, i32, i32, i32, i32, i32, i32, i32, i32, i32, i32, i32, i32, i32, i32, ptr, i32, i32, i32, i32, i64, ptr, i32, ptr }

; Function Attrs: nounwind uwtable
define i32 @Saig_ManCallSolver(ptr noundef %0, i32 noundef %1) #0 {
  %3 = alloca i32, align 4
  %4 = alloca ptr, align 8
  %5 = alloca i32, align 4
  store ptr %0, ptr %4, align 8, !tbaa !87
  store i32 %1, ptr %5, align 4, !tbaa !8
  %6 = load i32, ptr %5, align 4, !tbaa !8
  %7 = icmp eq i32 %6, 0
  br i1 %7, label %8, label %9

8:                                                ; preds = %2
  store i32 -1, ptr %3, align 4
  br label %58

9:                                                ; preds = %2
  %10 = load i32, ptr %5, align 4, !tbaa !8
  %11 = icmp eq i32 %10, 1
  br i1 %11, label %12, label %13

12:                                               ; preds = %9
  store i32 1, ptr %3, align 4
  br label %58

13:                                               ; preds = %9
  %14 = load ptr, ptr %4, align 8, !tbaa !87
  %15 = getelementptr inbounds nuw %struct.Gia_ManBmc_t_, ptr %14, i32 0, i32 21
  %16 = load ptr, ptr %15, align 8, !tbaa !112
  %17 = icmp ne ptr %16, null
  br i1 %17, label %18, label %28

18:                                               ; preds = %13
  %19 = load ptr, ptr %4, align 8, !tbaa !87
  %20 = getelementptr inbounds nuw %struct.Gia_ManBmc_t_, ptr %19, i32 0, i32 21
  %21 = load ptr, ptr %20, align 8, !tbaa !112
  %22 = load ptr, ptr %4, align 8, !tbaa !87
  %23 = getelementptr inbounds nuw %struct.Gia_ManBmc_t_, ptr %22, i32 0, i32 0
  %24 = load ptr, ptr %23, align 8, !tbaa !136
  %25 = getelementptr inbounds nuw %struct.Saig_ParBmc_t_, ptr %24, i32 0, i32 2
  %26 = load i32, ptr %25, align 8, !tbaa !186
  %27 = call i32 @satoko_solve_assumptions_limit(ptr noundef %21, ptr noundef %5, i32 noundef 1, i32 noundef %26)
  store i32 %27, ptr %3, align 4
  br label %58

28:                                               ; preds = %13
  %29 = load ptr, ptr %4, align 8, !tbaa !87
  %30 = getelementptr inbounds nuw %struct.Gia_ManBmc_t_, ptr %29, i32 0, i32 22
  %31 = load ptr, ptr %30, align 8, !tbaa !113
  %32 = icmp ne ptr %31, null
  br i1 %32, label %33, label %46

33:                                               ; preds = %28
  %34 = load ptr, ptr %4, align 8, !tbaa !87
  %35 = getelementptr inbounds nuw %struct.Gia_ManBmc_t_, ptr %34, i32 0, i32 22
  %36 = load ptr, ptr %35, align 8, !tbaa !113
  %37 = load ptr, ptr %4, align 8, !tbaa !87
  %38 = getelementptr inbounds nuw %struct.Gia_ManBmc_t_, ptr %37, i32 0, i32 0
  %39 = load ptr, ptr %38, align 8, !tbaa !136
  %40 = getelementptr inbounds nuw %struct.Saig_ParBmc_t_, ptr %39, i32 0, i32 2
  %41 = load i32, ptr %40, align 8, !tbaa !186
  call void @bmcg_sat_solver_set_conflict_budget(ptr noundef %36, i32 noundef %41)
  %42 = load ptr, ptr %4, align 8, !tbaa !87
  %43 = getelementptr inbounds nuw %struct.Gia_ManBmc_t_, ptr %42, i32 0, i32 22
  %44 = load ptr, ptr %43, align 8, !tbaa !113
  %45 = call i32 @bmcg_sat_solver_solve(ptr noundef %44, ptr noundef %5, i32 noundef 1)
  store i32 %45, ptr %3, align 4
  br label %58

46:                                               ; preds = %28
  %47 = load ptr, ptr %4, align 8, !tbaa !87
  %48 = getelementptr inbounds nuw %struct.Gia_ManBmc_t_, ptr %47, i32 0, i32 20
  %49 = load ptr, ptr %48, align 8, !tbaa !115
  %50 = getelementptr inbounds i32, ptr %5, i64 1
  %51 = load ptr, ptr %4, align 8, !tbaa !87
  %52 = getelementptr inbounds nuw %struct.Gia_ManBmc_t_, ptr %51, i32 0, i32 0
  %53 = load ptr, ptr %52, align 8, !tbaa !136
  %54 = getelementptr inbounds nuw %struct.Saig_ParBmc_t_, ptr %53, i32 0, i32 2
  %55 = load i32, ptr %54, align 8, !tbaa !186
  %56 = sext i32 %55 to i64
  %57 = call i32 @sat_solver_solve(ptr noundef %49, ptr noundef %5, ptr noundef %50, i64 noundef %56, i64 noundef 0, i64 noundef 0, i64 noundef 0)
  store i32 %57, ptr %3, align 4
  br label %58

58:                                               ; preds = %46, %33, %18, %12, %8
  %59 = load i32, ptr %3, align 4
  ret i32 %59
}