; Function Attrs: nounwind uwtable
define i32 @Saig_ManCallSolver(ptr noundef readonly captures(none) %0, i32 noundef %1) local_unnamed_addr #0 {
  %3 = alloca i32, align 4
  store i32 %1, ptr %3, align 4, !tbaa !28
  switch i32 %1, label %5 [
    i32 0, label %31
    i32 1, label %4
  ]

4:                                                ; preds = %2
  br label %31

5:                                                ; preds = %2
  %6 = getelementptr inbounds nuw i8, ptr %0, i64 144
  %7 = load ptr, ptr %6, align 8, !tbaa !114
  %.not = icmp eq ptr %7, null
  br i1 %.not, label %13, label %8

8:                                                ; preds = %5
  %9 = load ptr, ptr %0, align 8, !tbaa !137
  %10 = getelementptr inbounds nuw i8, ptr %9, i64 8
  %11 = load i32, ptr %10, align 8, !tbaa !198
  %12 = call i32 @satoko_solve_assumptions_limit(ptr noundef nonnull %7, ptr noundef nonnull %3, i32 noundef 1, i32 noundef %11) #24
  br label %31

13:                                               ; preds = %5
  %14 = getelementptr inbounds nuw i8, ptr %0, i64 152
  %15 = load ptr, ptr %14, align 8, !tbaa !115
  %.not12 = icmp eq ptr %15, null
  br i1 %.not12, label %22, label %16

16:                                               ; preds = %13
  %17 = load ptr, ptr %0, align 8, !tbaa !137
  %18 = getelementptr inbounds nuw i8, ptr %17, i64 8
  %19 = load i32, ptr %18, align 8, !tbaa !198
  tail call void @bmcg_sat_solver_set_conflict_budget(ptr noundef nonnull %15, i32 noundef %19) #24
  %20 = load ptr, ptr %14, align 8, !tbaa !115
  %21 = call i32 @bmcg_sat_solver_solve(ptr noundef %20, ptr noundef nonnull %3, i32 noundef 1) #24
  br label %31

22:                                               ; preds = %13
  %23 = getelementptr inbounds nuw i8, ptr %0, i64 136
  %24 = load ptr, ptr %23, align 8, !tbaa !117
  %25 = getelementptr inbounds nuw i8, ptr %3, i64 4
  %26 = load ptr, ptr %0, align 8, !tbaa !137
  %27 = getelementptr inbounds nuw i8, ptr %26, i64 8
  %28 = load i32, ptr %27, align 8, !tbaa !198
  %29 = sext i32 %28 to i64
  %30 = call i32 @sat_solver_solve(ptr noundef %24, ptr noundef nonnull %3, ptr noundef nonnull %25, i64 noundef %29, i64 noundef 0, i64 noundef 0, i64 noundef 0) #24
  br label %31

31:                                               ; preds = %2, %22, %16, %8, %4
  %.0 = phi i32 [ 1, %4 ], [ %12, %8 ], [ %21, %16 ], [ %30, %22 ], [ -1, %2 ]
  ret i32 %.0
}